target datalayout = "e-m:e-p270:32:32-p271:32:32-p272:64:64-i64:64-i128:128-f80:128-n8:16:32:64-S128"
target triple = "x86_64-pc-linux-gnu"

%"class.lean::buffer" = type { ptr, i64, i64, [64 x i8] }

; Function Attrs: mustprogress nounwind uwtable
define linkonce_odr hidden noundef nonnull align 4 dereferenceable(4) ptr @_ZN4lean6bufferIjLm16EEixEm(ptr noundef nonnull align 8 dereferenceable(88) %0, i64 noundef %1) #0 comdat align 2 {
  %3 = alloca ptr, align 8
  %4 = alloca i64, align 8
  store ptr %0, ptr %3, align 8, !tbaa !42
  store i64 %1, ptr %4, align 8, !tbaa !8
  %5 = load ptr, ptr %3, align 8
  %6 = getelementptr inbounds nuw %"class.lean::buffer", ptr %5, i32 0, i32 0
  %7 = load ptr, ptr %6, align 8, !tbaa !54
  %8 = load i64, ptr %4, align 8, !tbaa !8
  %9 = getelementptr inbounds nuw i32, ptr %7, i64 %8
  ret ptr %9
}

; Function Attrs: mustprogress uwtable
define linkonce_odr hidden noundef nonnull align 4 dereferenceable(4) ptr @_ZN4lean10mpn_bufferixEm(ptr noundef nonnull align 8 dereferenceable(88) %0, i64 noundef %1) #2 comdat align 2 {
  %3 = alloca ptr, align 8
  %4 = alloca i64, align 8
  store ptr %0, ptr %3, align 8, !tbaa !30
  store i64 %1, ptr %4, align 8, !tbaa !8
  %5 = load ptr, ptr %3, align 8
  %6 = load i64, ptr %4, align 8, !tbaa !8
  %7 = trunc i64 %6 to i32
  %8 = zext i32 %7 to i64
  %9 = call noundef nonnull align 4 dereferenceable(4) ptr @_ZN4lean6bufferIjLm16EEixEm(ptr noundef nonnull align 8 dereferenceable(88) %5, i64 noundef %8)
  ret ptr %9
}

; Function Attrs: mustprogress uwtable
define linkonce_odr hidden void @_ZN4lean10mpn_buffer6resizeEmRKj(ptr noundef nonnull align 8 dereferenceable(88) %0, i64 noundef %1, ptr noundef nonnull align 4 dereferenceable(4) %2) #2 comdat align 2 {
  %4 = alloca ptr, align 8
  %5 = alloca i64, align 8
  %6 = alloca ptr, align 8
  store ptr %0, ptr %4, align 8, !tbaa !30
  store i64 %1, ptr %5, align 8, !tbaa !8
  store ptr %2, ptr %6, align 8, !tbaa !3
  %7 = load ptr, ptr %4, align 8
  %8 = load i64, ptr %5, align 8, !tbaa !8
  %9 = trunc i64 %8 to i32
  %10 = zext i32 %9 to i64
  %11 = load ptr, ptr %6, align 8, !tbaa !3
  call void @_ZN4lean6bufferIjLm16EE6resizeEmRKj(ptr noundef nonnull align 8 dereferenceable(88) %7, i64 noundef %10, ptr noundef nonnull align 4 dereferenceable(4) %11)
  ret void
}

; Function Attrs: mustprogress uwtable
define internal noundef i64 @_ZN4leanL13div_normalizeEPKjmS1_mRNS_10mpn_bufferES3_(ptr noundef %0, i64 noundef %1, ptr noundef %2, i64 noundef %3, ptr noundef nonnull align 8 dereferenceable(88) %4, ptr noundef nonnull align 8 dereferenceable(88) %5) #2 {
  %7 = alloca ptr, align 8
  %8 = alloca i64, align 8
  %9 = alloca ptr, align 8
  %10 = alloca i64, align 8
  %11 = alloca ptr, align 8
  %12 = alloca ptr, align 8
  %13 = alloca i64, align 8
  %14 = alloca i32, align 4
  %15 = alloca i32, align 4
  %16 = alloca i64, align 8
  %17 = alloca i64, align 8
  %18 = alloca i32, align 4
  %19 = alloca i64, align 8
  %20 = alloca i64, align 8
  store ptr %0, ptr %7, align 8, !tbaa !3
  store i64 %1, ptr %8, align 8, !tbaa !8
  store ptr %2, ptr %9, align 8, !tbaa !3
  store i64 %3, ptr %10, align 8, !tbaa !8
  store ptr %4, ptr %11, align 8, !tbaa !30
  store ptr %5, ptr %12, align 8, !tbaa !30
  call void @llvm.lifetime.start.p0(i64 8, ptr %13) #12
  store i64 0, ptr %13, align 8, !tbaa !8
  br label %21

21:                                               ; preds = %37, %6
  %22 = load i64, ptr %10, align 8, !tbaa !8
  %23 = icmp ugt i64 %22, 0
  br i1 %23, label %24, label %35

24:                                               ; preds = %21
  %25 = load ptr, ptr %9, align 8, !tbaa !3
  %26 = load i64, ptr %10, align 8, !tbaa !8
  %27 = sub i64 %26, 1
  %28 = getelementptr inbounds nuw i32, ptr %25, i64 %27
  %29 = load i32, ptr %28, align 4, !tbaa !10
  %30 = load i64, ptr %13, align 8, !tbaa !8
  %31 = trunc i64 %30 to i32
  %32 = shl i32 %29, %31
  %33 = and i32 %32, -2147483648
  %34 = icmp eq i32 %33, 0
  br label %35

35:                                               ; preds = %24, %21
  %36 = phi i1 [ false, %21 ], [ %34, %24 ]
  br i1 %36, label %37, label %40

37:                                               ; preds = %35
  %38 = load i64, ptr %13, align 8, !tbaa !8
  %39 = add i64 %38, 1
  store i64 %39, ptr %13, align 8, !tbaa !8
  br label %21, !llvm.loop !32

40:                                               ; preds = %35
  %41 = load ptr, ptr %11, align 8, !tbaa !30
  %42 = load i64, ptr %8, align 8, !tbaa !8
  %43 = add i64 %42, 1
  call void @llvm.lifetime.start.p0(i64 4, ptr %14) #12
  store i32 0, ptr %14, align 4, !tbaa !10
  call void @_ZN4lean10mpn_buffer6resizeEmRKj(ptr noundef nonnull align 8 dereferenceable(88) %41, i64 noundef %43, ptr noundef nonnull align 4 dereferenceable(4) %14)
  call void @llvm.lifetime.end.p0(i64 4, ptr %14) #12
  %44 = load ptr, ptr %12, align 8, !tbaa !30
  %45 = load i64, ptr %10, align 8, !tbaa !8
  call void @llvm.lifetime.start.p0(i64 4, ptr %15) #12
  store i32 0, ptr %15, align 4, !tbaa !10
  call void @_ZN4lean10mpn_buffer6resizeEmRKj(ptr noundef nonnull align 8 dereferenceable(88) %44, i64 noundef %45, ptr noundef nonnull align 4 dereferenceable(4) %15)
  call void @llvm.lifetime.end.p0(i64 4, ptr %15) #12
  %46 = load i64, ptr %13, align 8, !tbaa !8
  %47 = icmp eq i64 %46, 0
  br i1 %47, label %48, label %86

48:                                               ; preds = %40
  %49 = load ptr, ptr %11, align 8, !tbaa !30
  %50 = load i64, ptr %8, align 8, !tbaa !8
  %51 = call noundef nonnull align 4 dereferenceable(4) ptr @_ZN4lean10mpn_bufferixEm(ptr noundef nonnull align 8 dereferenceable(88) %49, i64 noundef %50)
  store i32 0, ptr %51, align 4, !tbaa !10
  call void @llvm.lifetime.start.p0(i64 8, ptr %16) #12
  store i64 0, ptr %16, align 8, !tbaa !8
  br label %52

52:                                               ; preds = %65, %48
  %53 = load i64, ptr %16, align 8, !tbaa !8
  %54 = load i64, ptr %8, align 8, !tbaa !8
  %55 = icmp ult i64 %53, %54
  br i1 %55, label %57, label %56

56:                                               ; preds = %52
  call void @llvm.lifetime.end.p0(i64 8, ptr %16) #12
  br label %68

57:                                               ; preds = %52
  %58 = load ptr, ptr %7, align 8, !tbaa !3
  %59 = load i64, ptr %16, align 8, !tbaa !8
  %60 = getelementptr inbounds nuw i32, ptr %58, i64 %59
  %61 = load i32, ptr %60, align 4, !tbaa !10
  %62 = load ptr, ptr %11, align 8, !tbaa !30
  %63 = load i64, ptr %16, align 8, !tbaa !8
  %64 = call noundef nonnull align 4 dereferenceable(4) ptr @_ZN4lean10mpn_bufferixEm(ptr noundef nonnull align 8 dereferenceable(88) %62, i64 noundef %63)
  store i32 %61, ptr %64, align 4, !tbaa !10
  br label %65

65:                                               ; preds = %57
  %66 = load i64, ptr %16, align 8, !tbaa !8
  %67 = add i64 %66, 1
  store i64 %67, ptr %16, align 8, !tbaa !8
  br label %52, !llvm.loop !33

68:                                               ; preds = %56
  call void @llvm.lifetime.start.p0(i64 8, ptr %17) #12
  store i64 0, ptr %17, align 8, !tbaa !8
  br label %69

69:                                               ; preds = %82, %68
  %70 = load i64, ptr %17, align 8, !tbaa !8
  %71 = load i64, ptr %10, align 8, !tbaa !8
  %72 = icmp ult i64 %70, %71
  br i1 %72, label %74, label %73

73:                                               ; preds = %69
  call void @llvm.lifetime.end.p0(i64 8, ptr %17) #12
  br label %85

74:                                               ; preds = %69
  %75 = load ptr, ptr %9, align 8, !tbaa !3
  %76 = load i64, ptr %17, align 8, !tbaa !8
  %77 = getelementptr inbounds nuw i32, ptr %75, i64 %76
  %78 = load i32, ptr %77, align 4, !tbaa !10
  %79 = load ptr, ptr %12, align 8, !tbaa !30
  %80 = load i64, ptr %17, align 8, !tbaa !8
  %81 = call noundef nonnull align 4 dereferenceable(4) ptr @_ZN4lean10mpn_bufferixEm(ptr noundef nonnull align 8 dereferenceable(88) %79, i64 noundef %80)
  store i32 %78, ptr %81, align 4, !tbaa !10
  br label %82

82:                                               ; preds = %74
  %83 = load i64, ptr %17, align 8, !tbaa !8
  %84 = add i64 %83, 1
  store i64 %84, ptr %17, align 8, !tbaa !8
  br label %69, !llvm.loop !34

85:                                               ; preds = %73
  br label %183

86:                                               ; preds = %40
  %87 = load i64, ptr %8, align 8, !tbaa !8
  %88 = icmp ne i64 %87, 0
  br i1 %88, label %89, label %181

89:                                               ; preds = %86
  call void @llvm.lifetime.start.p0(i64 4, ptr %18) #12
  %90 = load ptr, ptr %7, align 8, !tbaa !3
  %91 = load i64, ptr %8, align 8, !tbaa !8
  %92 = sub i64 %91, 1
  %93 = getelementptr inbounds nuw i32, ptr %90, i64 %92
  %94 = load i32, ptr %93, align 4, !tbaa !10
  %95 = load i64, ptr %13, align 8, !tbaa !8
  %96 = sub i64 32, %95
  %97 = trunc i64 %96 to i32
  %98 = lshr i32 %94, %97
  store i32 %98, ptr %18, align 4, !tbaa !10
  %99 = load i32, ptr %18, align 4, !tbaa !10
  %100 = load ptr, ptr %11, align 8, !tbaa !30
  %101 = load i64, ptr %8, align 8, !tbaa !8
  %102 = call noundef nonnull align 4 dereferenceable(4) ptr @_ZN4lean10mpn_bufferixEm(ptr noundef nonnull align 8 dereferenceable(88) %100, i64 noundef %101)
  store i32 %99, ptr %102, align 4, !tbaa !10
  call void @llvm.lifetime.start.p0(i64 8, ptr %19) #12
  %103 = load i64, ptr %8, align 8, !tbaa !8
  %104 = sub i64 %103, 1
  store i64 %104, ptr %19, align 8, !tbaa !8
  br label %105

105:                                              ; preds = %130, %89
  %106 = load i64, ptr %19, align 8, !tbaa !8
  %107 = icmp ugt i64 %106, 0
  br i1 %107, label %109, label %108

108:                                              ; preds = %105
  call void @llvm.lifetime.end.p0(i64 8, ptr %19) #12
  br label %133

109:                                              ; preds = %105
  %110 = load ptr, ptr %7, align 8, !tbaa !3
  %111 = load i64, ptr %19, align 8, !tbaa !8
  %112 = getelementptr inbounds nuw i32, ptr %110, i64 %111
  %113 = load i32, ptr %112, align 4, !tbaa !10
  %114 = load i64, ptr %13, align 8, !tbaa !8
  %115 = trunc i64 %114 to i32
  %116 = shl i32 %113, %115
  %117 = load ptr, ptr %7, align 8, !tbaa !3
  %118 = load i64, ptr %19, align 8, !tbaa !8
  %119 = sub i64 %118, 1
  %120 = getelementptr inbounds nuw i32, ptr %117, i64 %119
  %121 = load i32, ptr %120, align 4, !tbaa !10
  %122 = load i64, ptr %13, align 8, !tbaa !8
  %123 = sub i64 32, %122
  %124 = trunc i64 %123 to i32
  %125 = lshr i32 %121, %124
  %126 = or i32 %116, %125
  %127 = load ptr, ptr %11, align 8, !tbaa !30
  %128 = load i64, ptr %19, align 8, !tbaa !8
  %129 = call noundef nonnull align 4 dereferenceable(4) ptr @_ZN4lean10mpn_bufferixEm(ptr noundef nonnull align 8 dereferenceable(88) %127, i64 noundef %128)
  store i32 %126, ptr %129, align 4, !tbaa !10
  br label %130

130:                                              ; preds = %109
  %131 = load i64, ptr %19, align 8, !tbaa !8
  %132 = add i64 %131, -1
  store i64 %132, ptr %19, align 8, !tbaa !8
  br label %105, !llvm.loop !35

133:                                              ; preds = %108
  %134 = load ptr, ptr %7, align 8, !tbaa !3
  %135 = getelementptr inbounds i32, ptr %134, i64 0
  %136 = load i32, ptr %135, align 4, !tbaa !10
  %137 = load i64, ptr %13, align 8, !tbaa !8
  %138 = trunc i64 %137 to i32
  %139 = shl i32 %136, %138
  %140 = load ptr, ptr %11, align 8, !tbaa !30
  %141 = call noundef nonnull align 4 dereferenceable(4) ptr @_ZN4lean10mpn_bufferixEm(ptr noundef nonnull align 8 dereferenceable(88) %140, i64 noundef 0)
  store i32 %139, ptr %141, align 4, !tbaa !10
  call void @llvm.lifetime.start.p0(i64 8, ptr %20) #12
  %142 = load i64, ptr %10, align 8, !tbaa !8
  %143 = sub i64 %142, 1
  store i64 %143, ptr %20, align 8, !tbaa !8
  br label %144

144:                                              ; preds = %169, %133
  %145 = load i64, ptr %20, align 8, !tbaa !8
  %146 = icmp ugt i64 %145, 0
  br i1 %146, label %148, label %147

147:                                              ; preds = %144
  call void @llvm.lifetime.end.p0(i64 8, ptr %20) #12
  br label %172

148:                                              ; preds = %144
  %149 = load ptr, ptr %9, align 8, !tbaa !3
  %150 = load i64, ptr %20, align 8, !tbaa !8
  %151 = getelementptr inbounds nuw i32, ptr %149, i64 %150
  %152 = load i32, ptr %151, align 4, !tbaa !10
  %153 = load i64, ptr %13, align 8, !tbaa !8
  %154 = trunc i64 %153 to i32
  %155 = shl i32 %152, %154
  %156 = load ptr, ptr %9, align 8, !tbaa !3
  %157 = load i64, ptr %20, align 8, !tbaa !8
  %158 = sub i64 %157, 1
  %159 = getelementptr inbounds nuw i32, ptr %156, i64 %158
  %160 = load i32, ptr %159, align 4, !tbaa !10
  %161 = load i64, ptr %13, align 8, !tbaa !8
  %162 = sub i64 32, %161
  %163 = trunc i64 %162 to i32
  %164 = lshr i32 %160, %163
  %165 = or i32 %155, %164
  %166 = load ptr, ptr %12, align 8, !tbaa !30
  %167 = load i64, ptr %20, align 8, !tbaa !8
  %168 = call noundef nonnull align 4 dereferenceable(4) ptr @_ZN4lean10mpn_bufferixEm(ptr noundef nonnull align 8 dereferenceable(88) %166, i64 noundef %167)
  store i32 %165, ptr %168, align 4, !tbaa !10
  br label %169

169:                                              ; preds = %148
  %170 = load i64, ptr %20, align 8, !tbaa !8
  %171 = add i64 %170, -1
  store i64 %171, ptr %20, align 8, !tbaa !8
  br label %144, !llvm.loop !36

172:                                              ; preds = %147
  %173 = load ptr, ptr %9, align 8, !tbaa !3
  %174 = getelementptr inbounds i32, ptr %173, i64 0
  %175 = load i32, ptr %174, align 4, !tbaa !10
  %176 = load i64, ptr %13, align 8, !tbaa !8
  %177 = trunc i64 %176 to i32
  %178 = shl i32 %175, %177
  %179 = load ptr, ptr %12, align 8, !tbaa !30
  %180 = call noundef nonnull align 4 dereferenceable(4) ptr @_ZN4lean10mpn_bufferixEm(ptr noundef nonnull align 8 dereferenceable(88) %179, i64 noundef 0)
  store i32 %178, ptr %180, align 4, !tbaa !10
  call void @llvm.lifetime.end.p0(i64 4, ptr %18) #12
  br label %182

181:                                              ; preds = %86
  store i64 0, ptr %13, align 8, !tbaa !8
  br label %182

182:                                              ; preds = %181, %172
  br label %183

183:                                              ; preds = %182, %85
  %184 = load i64, ptr %13, align 8, !tbaa !8
  call void @llvm.lifetime.end.p0(i64 8, ptr %13) #12
  ret i64 %184
}