; Function Attrs: mustprogress uwtable
define internal fastcc noundef i64 @_ZN4leanL13div_normalizeEPKjmS1_mRNS_10mpn_bufferES3_(ptr noundef readonly captures(none) %0, i64 noundef %1, ptr noundef readonly captures(none) %2, i64 noundef %3, ptr noundef nonnull align 8 dereferenceable(88) %4, ptr noundef nonnull align 8 dereferenceable(88) %5) unnamed_addr #4 {
  %7 = alloca i32, align 4
  %8 = alloca i32, align 4
  %.not = icmp eq i64 %3, 0
  br i1 %.not, label %.critedge, label %.lr.ph

.lr.ph:                                           ; preds = %6
  %9 = getelementptr i32, ptr %2, i64 %3
  %10 = getelementptr i8, ptr %9, i64 -4
  %11 = load i32, ptr %10, align 4, !tbaa !3
  br label %12

12:                                               ; preds = %12, %.lr.ph
  %.06270 = phi i64 [ 0, %.lr.ph ], [ %16, %12 ]
  %13 = trunc i64 %.06270 to i32
  %14 = shl i32 %11, %13
  %15 = icmp sgt i32 %14, -1
  %16 = add i64 %.06270, 1
  br i1 %15, label %12, label %.critedge

.critedge:                                        ; preds = %12, %6
  %.062.lcssa = phi i64 [ 0, %6 ], [ %.06270, %12 ]
  %17 = add i64 %1, 1
  call void @llvm.lifetime.start.p0(i64 4, ptr nonnull %7) #14
  store i32 0, ptr %7, align 4, !tbaa !3
  %18 = and i64 %17, 4294967295
  call void @_ZN4lean6bufferIjLm16EE6resizeEmRKj(ptr noundef nonnull align 8 dereferenceable(88) %4, i64 noundef %18, ptr noundef nonnull align 4 dereferenceable(4) %7)
  call void @llvm.lifetime.end.p0(i64 4, ptr nonnull %7) #14
  call void @llvm.lifetime.start.p0(i64 4, ptr nonnull %8) #14
  store i32 0, ptr %8, align 4, !tbaa !3
  %19 = and i64 %3, 4294967295
  call void @_ZN4lean6bufferIjLm16EE6resizeEmRKj(ptr noundef nonnull align 8 dereferenceable(88) %5, i64 noundef %19, ptr noundef nonnull align 4 dereferenceable(4) %8)
  call void @llvm.lifetime.end.p0(i64 4, ptr nonnull %8) #14
  %20 = icmp eq i64 %.062.lcssa, 0
  br i1 %20, label %21, label %37

21:                                               ; preds = %.critedge
  %22 = and i64 %1, 4294967295
  %23 = load ptr, ptr %4, align 8, !tbaa !19
  %24 = getelementptr inbounds nuw i32, ptr %23, i64 %22
  store i32 0, ptr %24, align 4, !tbaa !3
  %.not89 = icmp eq i64 %1, 0
  br i1 %.not89, label %.preheader, label %.lr.ph86

.preheader:                                       ; preds = %.lr.ph86, %21
  br i1 %.not, label %.loopexit, label %.lr.ph88

.lr.ph88:                                         ; preds = %.preheader
  %25 = load ptr, ptr %5, align 8, !tbaa !19
  br label %31

.lr.ph86:                                         ; preds = %21, %.lr.ph86
  %.06484 = phi i64 [ %30, %.lr.ph86 ], [ 0, %21 ]
  %26 = getelementptr inbounds nuw i32, ptr %0, i64 %.06484
  %27 = load i32, ptr %26, align 4, !tbaa !3
  %28 = and i64 %.06484, 4294967295
  %29 = getelementptr inbounds nuw i32, ptr %23, i64 %28
  store i32 %27, ptr %29, align 4, !tbaa !3
  %30 = add nuw i64 %.06484, 1
  %exitcond.not = icmp eq i64 %30, %1
  br i1 %exitcond.not, label %.preheader, label %.lr.ph86, !llvm.loop !38

31:                                               ; preds = %.lr.ph88, %31
  %.06387 = phi i64 [ 0, %.lr.ph88 ], [ %36, %31 ]
  %32 = getelementptr inbounds nuw i32, ptr %2, i64 %.06387
  %33 = load i32, ptr %32, align 4, !tbaa !3
  %34 = and i64 %.06387, 4294967295
  %35 = getelementptr inbounds nuw i32, ptr %25, i64 %34
  store i32 %33, ptr %35, align 4, !tbaa !3
  %36 = add nuw i64 %.06387, 1
  %exitcond91.not = icmp eq i64 %36, %3
  br i1 %exitcond91.not, label %.loopexit, label %31, !llvm.loop !39

37:                                               ; preds = %.critedge
  %.not67 = icmp eq i64 %1, 0
  br i1 %.not67, label %.loopexit, label %38

38:                                               ; preds = %37
  %39 = add i64 %1, -1
  %40 = getelementptr inbounds nuw i32, ptr %0, i64 %39
  %41 = load i32, ptr %40, align 4, !tbaa !3
  %42 = trunc i64 %.062.lcssa to i32
  %43 = sub i32 32, %42
  %44 = lshr i32 %41, %43
  %45 = and i64 %1, 4294967295
  %46 = load ptr, ptr %4, align 8, !tbaa !19
  %47 = getelementptr inbounds nuw i32, ptr %46, i64 %45
  store i32 %44, ptr %47, align 4, !tbaa !3
  %.not6874 = icmp eq i64 %39, 0
  br i1 %.not6874, label %._crit_edge, label %.lr.ph76

._crit_edge:                                      ; preds = %.lr.ph76, %38
  %48 = load i32, ptr %0, align 4, !tbaa !3
  %49 = shl i32 %48, %42
  store i32 %49, ptr %46, align 4, !tbaa !3
  %invariant.gep = getelementptr i8, ptr %2, i64 -8
  %.077 = add i64 %3, -1
  %.not6978 = icmp eq i64 %.077, 0
  %.pre = load ptr, ptr %5, align 8, !tbaa !19
  br i1 %.not6978, label %._crit_edge83, label %.lr.ph82

.lr.ph76:                                         ; preds = %38, %.lr.ph76
  %.06175 = phi i64 [ %59, %.lr.ph76 ], [ %39, %38 ]
  %50 = getelementptr inbounds nuw i32, ptr %0, i64 %.06175
  %51 = load i32, ptr %50, align 4, !tbaa !3
  %52 = shl i32 %51, %42
  %53 = getelementptr i8, ptr %50, i64 -4
  %54 = load i32, ptr %53, align 4, !tbaa !3
  %55 = lshr i32 %54, %43
  %56 = or disjoint i32 %55, %52
  %57 = and i64 %.06175, 4294967295
  %58 = getelementptr inbounds nuw i32, ptr %46, i64 %57
  store i32 %56, ptr %58, align 4, !tbaa !3
  %59 = add i64 %.06175, -1
  %.not68 = icmp eq i64 %59, 0
  br i1 %.not68, label %._crit_edge, label %.lr.ph76, !llvm.loop !40

._crit_edge83:                                    ; preds = %.lr.ph82, %._crit_edge
  %60 = load i32, ptr %2, align 4, !tbaa !3
  %61 = shl i32 %60, %42
  store i32 %61, ptr %.pre, align 4, !tbaa !3
  br label %.loopexit

.lr.ph82:                                         ; preds = %._crit_edge, %.lr.ph82
  %.080 = phi i64 [ %.0, %.lr.ph82 ], [ %.077, %._crit_edge ]
  %.0.in79 = phi i64 [ %.080, %.lr.ph82 ], [ %3, %._crit_edge ]
  %62 = getelementptr inbounds nuw i32, ptr %2, i64 %.080
  %63 = load i32, ptr %62, align 4, !tbaa !3
  %64 = shl i32 %63, %42
  %gep = getelementptr i32, ptr %invariant.gep, i64 %.0.in79
  %65 = load i32, ptr %gep, align 4, !tbaa !3
  %66 = lshr i32 %65, %43
  %67 = or disjoint i32 %66, %64
  %68 = and i64 %.080, 4294967295
  %69 = getelementptr inbounds nuw i32, ptr %.pre, i64 %68
  store i32 %67, ptr %69, align 4, !tbaa !3
  %.0 = add i64 %.080, -1
  %.not69 = icmp eq i64 %.0, 0
  br i1 %.not69, label %._crit_edge83, label %.lr.ph82, !llvm.loop !41

.loopexit:                                        ; preds = %31, %.preheader, %37, %._crit_edge83
  %.1 = phi i64 [ %.062.lcssa, %._crit_edge83 ], [ 0, %37 ], [ 0, %.preheader ], [ 0, %31 ]
  ret i64 %.1
}